; Function Attrs: null_pointer_is_valid sspstrong uwtable
define internal i32 @dissect_LOGON_HOURS_hours(ptr noundef %0, i32 noundef %1, ptr noundef %2, ptr noundef %3, ptr noundef %4, ptr noundef %5) #0 {
  %7 = alloca ptr, align 8
  call void @llvm.lifetime.start.p0(i64 8, ptr nonnull %7) #9
  %8 = load i32, ptr @ett_nt_logon_hours_hours, align 4
  %9 = call ptr @proto_tree_add_subtree(ptr noundef %3, ptr noundef %0, i32 noundef %1, i32 noundef -1, i32 noundef %8, ptr noundef nonnull %7, ptr noundef nonnull @.str.18)
  %10 = call i32 @dissect_ndr_ucvarray(ptr noundef %0, i32 noundef %1, ptr noundef %2, ptr noundef %9, ptr noundef %4, ptr noundef %5, ptr noundef nonnull @dissect_LOGON_HOURS_entry)
  %11 = load ptr, ptr %7, align 8
  %12 = sub i32 %10, %1
  call void @proto_item_set_len(ptr noundef %11, i32 noundef %12)
  call void @llvm.lifetime.end.p0(i64 8, ptr nonnull %7) #9
  ret i32 %10
}